target datalayout = "e-m:e-p270:32:32-p271:32:32-p272:64:64-i64:64-i128:128-f80:128-n8:16:32:64-S128"
target triple = "x86_64-pc-linux-gnu"

%"struct.vcpkg::StringView" = type { ptr, i64 }
%"struct.vcpkg::LineInfo" = type { i32, ptr }
%"class.std::__cxx11::basic_string" = type { %"struct.std::__cxx11::basic_string<char>::_Alloc_hider", i64, %union.anon.19 }
%"struct.std::__cxx11::basic_string<char>::_Alloc_hider" = type { ptr }
%union.anon.19 = type { i64, [8 x i8] }
%class.anon = type { ptr, ptr }
%"struct.vcpkg::Hash::(anonymous namespace)::ShaHasher" = type { %"struct.vcpkg::Hash::Hasher", %"struct.vcpkg::Hash::(anonymous namespace)::Sha256Algorithm", %"struct.std::array.22", i64, i64 }
%"struct.vcpkg::Hash::Hasher" = type { ptr }
%"struct.vcpkg::Hash::(anonymous namespace)::Sha256Algorithm" = type { [8 x i32] }
%"struct.std::array.22" = type { [64 x i8] }
%"struct.vcpkg::Hash::(anonymous namespace)::ShaHasher.26" = type { %"struct.vcpkg::Hash::Hasher", %"struct.vcpkg::Hash::(anonymous namespace)::Sha512Algorithm", %"struct.std::array.27", i64, %"struct.vcpkg::UInt128" }
%"struct.vcpkg::Hash::(anonymous namespace)::Sha512Algorithm" = type { [8 x i64] }
%"struct.std::array.27" = type { [128 x i8] }
%"struct.vcpkg::UInt128" = type { i64, i64 }

@.str.2 = private unnamed_addr constant [118 x i8] c"generated/home/dtcxzyw/WorkSpace/Projects/compilers/llvm-opt-benchmark/bench/vcpkg/vcpkg-tool/src/vcpkg/base/hash.cpp\00", align 1
@_ZTVN5vcpkg4Hash6HasherE = linkonce_odr dso_local unnamed_addr constant { [7 x ptr] } { [7 x ptr] [ptr null, ptr @_ZTIN5vcpkg4Hash6HasherE, ptr @__cxa_pure_virtual, ptr @__cxa_pure_virtual, ptr @__cxa_pure_virtual, ptr @_ZN5vcpkg4Hash6HasherD2Ev, ptr @_ZN5vcpkg4Hash6HasherD0Ev] }, comdat, align 8

; Function Attrs: mustprogress nounwind uwtable
define internal void @_ZN5vcpkg4Hash12_GLOBAL__N_115Sha512Algorithm5clearEv(ptr noundef nonnull align 8 dereferenceable(64) %0) #0 align 2 {
  %2 = alloca ptr, align 8
  store ptr %0, ptr %2, align 8
  %3 = load ptr, ptr %2, align 8
  %4 = getelementptr inbounds %"struct.vcpkg::Hash::(anonymous namespace)::Sha512Algorithm", ptr %3, i32 0, i32 0
  %5 = getelementptr inbounds [8 x i64], ptr %4, i64 0, i64 0
  store i64 7640891576956012808, ptr %5, align 8
  %6 = getelementptr inbounds %"struct.vcpkg::Hash::(anonymous namespace)::Sha512Algorithm", ptr %3, i32 0, i32 0
  %7 = getelementptr inbounds [8 x i64], ptr %6, i64 0, i64 1
  store i64 -4942790177534073029, ptr %7, align 8
  %8 = getelementptr inbounds %"struct.vcpkg::Hash::(anonymous namespace)::Sha512Algorithm", ptr %3, i32 0, i32 0
  %9 = getelementptr inbounds [8 x i64], ptr %8, i64 0, i64 2
  store i64 4354685564936845355, ptr %9, align 8
  %10 = getelementptr inbounds %"struct.vcpkg::Hash::(anonymous namespace)::Sha512Algorithm", ptr %3, i32 0, i32 0
  %11 = getelementptr inbounds [8 x i64], ptr %10, i64 0, i64 3
  store i64 -6534734903238641935, ptr %11, align 8
  %12 = getelementptr inbounds %"struct.vcpkg::Hash::(anonymous namespace)::Sha512Algorithm", ptr %3, i32 0, i32 0
  %13 = getelementptr inbounds [8 x i64], ptr %12, i64 0, i64 4
  store i64 5840696475078001361, ptr %13, align 8
  %14 = getelementptr inbounds %"struct.vcpkg::Hash::(anonymous namespace)::Sha512Algorithm", ptr %3, i32 0, i32 0
  %15 = getelementptr inbounds [8 x i64], ptr %14, i64 0, i64 5
  store i64 -7276294671716946913, ptr %15, align 8
  %16 = getelementptr inbounds %"struct.vcpkg::Hash::(anonymous namespace)::Sha512Algorithm", ptr %3, i32 0, i32 0
  %17 = getelementptr inbounds [8 x i64], ptr %16, i64 0, i64 6
  store i64 2270897969802886507, ptr %17, align 8
  %18 = getelementptr inbounds %"struct.vcpkg::Hash::(anonymous namespace)::Sha512Algorithm", ptr %3, i32 0, i32 0
  %19 = getelementptr inbounds [8 x i64], ptr %18, i64 0, i64 7
  store i64 6620516959819538809, ptr %19, align 8
  ret void
}

; Function Attrs: mustprogress nounwind uwtable
define internal void @_ZN5vcpkg4Hash12_GLOBAL__N_115Sha256Algorithm5clearEv(ptr noundef nonnull align 4 dereferenceable(32) %0) #0 align 2 {
  %2 = alloca ptr, align 8
  store ptr %0, ptr %2, align 8
  %3 = load ptr, ptr %2, align 8
  %4 = getelementptr inbounds %"struct.vcpkg::Hash::(anonymous namespace)::Sha256Algorithm", ptr %3, i32 0, i32 0
  %5 = getelementptr inbounds [8 x i32], ptr %4, i64 0, i64 0
  store i32 1779033703, ptr %5, align 4
  %6 = getelementptr inbounds %"struct.vcpkg::Hash::(anonymous namespace)::Sha256Algorithm", ptr %3, i32 0, i32 0
  %7 = getelementptr inbounds [8 x i32], ptr %6, i64 0, i64 1
  store i32 -1150833019, ptr %7, align 4
  %8 = getelementptr inbounds %"struct.vcpkg::Hash::(anonymous namespace)::Sha256Algorithm", ptr %3, i32 0, i32 0
  %9 = getelementptr inbounds [8 x i32], ptr %8, i64 0, i64 2
  store i32 1013904242, ptr %9, align 4
  %10 = getelementptr inbounds %"struct.vcpkg::Hash::(anonymous namespace)::Sha256Algorithm", ptr %3, i32 0, i32 0
  %11 = getelementptr inbounds [8 x i32], ptr %10, i64 0, i64 3
  store i32 -1521486534, ptr %11, align 4
  %12 = getelementptr inbounds %"struct.vcpkg::Hash::(anonymous namespace)::Sha256Algorithm", ptr %3, i32 0, i32 0
  %13 = getelementptr inbounds [8 x i32], ptr %12, i64 0, i64 4
  store i32 1359893119, ptr %13, align 4
  %14 = getelementptr inbounds %"struct.vcpkg::Hash::(anonymous namespace)::Sha256Algorithm", ptr %3, i32 0, i32 0
  %15 = getelementptr inbounds [8 x i32], ptr %14, i64 0, i64 5
  store i32 -1694144372, ptr %15, align 4
  %16 = getelementptr inbounds %"struct.vcpkg::Hash::(anonymous namespace)::Sha256Algorithm", ptr %3, i32 0, i32 0
  %17 = getelementptr inbounds [8 x i32], ptr %16, i64 0, i64 6
  store i32 528734635, ptr %17, align 4
  %18 = getelementptr inbounds %"struct.vcpkg::Hash::(anonymous namespace)::Sha256Algorithm", ptr %3, i32 0, i32 0
  %19 = getelementptr inbounds [8 x i32], ptr %18, i64 0, i64 7
  store i32 1541459225, ptr %19, align 4
  ret void
}

; Function Attrs: mustprogress nounwind uwtable
define linkonce_odr dso_local void @_ZN5vcpkg7UInt128C2Em(ptr noundef nonnull align 8 dereferenceable(16) %0, i64 noundef %1) unnamed_addr #0 comdat align 2 {
  %3 = alloca ptr, align 8
  %4 = alloca i64, align 8
  store ptr %0, ptr %3, align 8
  store i64 %1, ptr %4, align 8
  %5 = load ptr, ptr %3, align 8
  %6 = getelementptr inbounds %"struct.vcpkg::UInt128", ptr %5, i32 0, i32 0
  %7 = load i64, ptr %4, align 8
  store i64 %7, ptr %6, align 8
  %8 = getelementptr inbounds %"struct.vcpkg::UInt128", ptr %5, i32 0, i32 1
  store i64 0, ptr %8, align 8
  ret void
}

; Function Attrs: mustprogress nounwind uwtable
define internal void @_ZN5vcpkg4Hash12_GLOBAL__N_115Sha512AlgorithmC2Ev(ptr noundef nonnull align 8 dereferenceable(64) %0) unnamed_addr #0 align 2 {
  %2 = alloca ptr, align 8
  store ptr %0, ptr %2, align 8
  %3 = load ptr, ptr %2, align 8
  call void @_ZN5vcpkg4Hash12_GLOBAL__N_115Sha512Algorithm5clearEv(ptr noundef nonnull align 8 dereferenceable(64) %3) #16
  ret void
}

; Function Attrs: mustprogress nounwind uwtable
define linkonce_odr dso_local void @_ZN5vcpkg4Hash6HasherD2Ev(ptr noundef nonnull align 8 dereferenceable(8) %0) unnamed_addr #0 comdat align 2 {
  %2 = alloca ptr, align 8
  store ptr %0, ptr %2, align 8
  ret void
}

; Function Attrs: mustprogress nounwind uwtable
define internal void @_ZN5vcpkg4Hash12_GLOBAL__N_115Sha256AlgorithmC2Ev(ptr noundef nonnull align 4 dereferenceable(32) %0) unnamed_addr #0 align 2 {
  %2 = alloca ptr, align 8
  store ptr %0, ptr %2, align 8
  %3 = load ptr, ptr %2, align 8
  call void @_ZN5vcpkg4Hash12_GLOBAL__N_115Sha256Algorithm5clearEv(ptr noundef nonnull align 4 dereferenceable(32) %3) #16
  ret void
}

; Function Attrs: mustprogress nounwind uwtable
define linkonce_odr dso_local void @_ZN5vcpkg4Hash6HasherC2Ev(ptr noundef nonnull align 8 dereferenceable(8) %0) unnamed_addr #0 comdat align 2 {
  %2 = alloca ptr, align 8
  store ptr %0, ptr %2, align 8
  %3 = load ptr, ptr %2, align 8
  store ptr getelementptr inbounds ({ [7 x ptr] }, ptr @_ZTVN5vcpkg4Hash6HasherE, i32 0, i32 0, i32 2), ptr %3, align 8
  ret void
}

; Function Attrs: mustprogress nounwind uwtable
define internal void @_ZN5vcpkg4Hash12_GLOBAL__N_19ShaHasherINS1_15Sha512AlgorithmEED2Ev(ptr noundef nonnull align 8 dereferenceable(224) %0) unnamed_addr #0 align 2 {
  %2 = alloca ptr, align 8
  store ptr %0, ptr %2, align 8
  %3 = load ptr, ptr %2, align 8
  call void @_ZN5vcpkg4Hash6HasherD2Ev(ptr noundef nonnull align 8 dereferenceable(8) %3) #16
  ret void
}

; Function Attrs: mustprogress uwtable
define internal void @_ZN5vcpkg4Hash12_GLOBAL__N_19ShaHasherINS1_15Sha512AlgorithmEEC2Ev(ptr noundef nonnull align 8 dereferenceable(224) %0) unnamed_addr #4 align 2 personality ptr @__gxx_personality_v0 {
  %2 = alloca ptr, align 8
  %3 = alloca ptr, align 8
  %4 = alloca i32, align 4
  store ptr %0, ptr %2, align 8
  %5 = load ptr, ptr %2, align 8
  call void @_ZN5vcpkg4Hash6HasherC2Ev(ptr noundef nonnull align 8 dereferenceable(8) %5) #16
  store ptr getelementptr inbounds ({ [7 x ptr] }, ptr @_ZTVN5vcpkg4Hash12_GLOBAL__N_19ShaHasherINS1_15Sha512AlgorithmEEE, i32 0, i32 0, i32 2), ptr %5, align 8
  %6 = getelementptr inbounds %"struct.vcpkg::Hash::(anonymous namespace)::ShaHasher.26", ptr %5, i32 0, i32 1
  call void @_ZN5vcpkg4Hash12_GLOBAL__N_115Sha512AlgorithmC2Ev(ptr noundef nonnull align 8 dereferenceable(64) %6) #16
  %7 = getelementptr inbounds %"struct.vcpkg::Hash::(anonymous namespace)::ShaHasher.26", ptr %5, i32 0, i32 2
  %8 = getelementptr inbounds %"struct.std::array.27", ptr %7, i32 0, i32 0
  call void @llvm.memset.p0.i64(ptr align 8 %8, i8 0, i64 128, i1 false)
  %9 = getelementptr inbounds %"struct.vcpkg::Hash::(anonymous namespace)::ShaHasher.26", ptr %5, i32 0, i32 3
  store i64 0, ptr %9, align 8
  %10 = getelementptr inbounds %"struct.vcpkg::Hash::(anonymous namespace)::ShaHasher.26", ptr %5, i32 0, i32 4
  invoke void @_ZN5vcpkg7UInt128C2Em(ptr noundef nonnull align 8 dereferenceable(16) %10, i64 noundef 0)
          to label %11 unwind label %12

11:                                               ; preds = %1
  ret void

12:                                               ; preds = %1
  %13 = landingpad { ptr, i32 }
          cleanup
  %14 = extractvalue { ptr, i32 } %13, 0
  store ptr %14, ptr %3, align 8
  %15 = extractvalue { ptr, i32 } %13, 1
  store i32 %15, ptr %4, align 4
  call void @_ZN5vcpkg4Hash6HasherD2Ev(ptr noundef nonnull align 8 dereferenceable(8) %5) #16
  br label %16

16:                                               ; preds = %12
  %17 = load ptr, ptr %3, align 8
  %18 = load i32, ptr %4, align 4
  %19 = insertvalue { ptr, i32 } poison, ptr %17, 0
  %20 = insertvalue { ptr, i32 } %19, i32 %18, 1
  resume { ptr, i32 } %20
}

; Function Attrs: mustprogress nounwind uwtable
define internal void @_ZN5vcpkg4Hash12_GLOBAL__N_19ShaHasherINS1_15Sha256AlgorithmEED2Ev(ptr noundef nonnull align 8 dereferenceable(120) %0) unnamed_addr #0 align 2 {
  %2 = alloca ptr, align 8
  store ptr %0, ptr %2, align 8
  %3 = load ptr, ptr %2, align 8
  call void @_ZN5vcpkg4Hash6HasherD2Ev(ptr noundef nonnull align 8 dereferenceable(8) %3) #16
  ret void
}

; Function Attrs: mustprogress uwtable
define internal void @"_ZZN5vcpkg4Hash14get_bytes_hashB5cxx11EPKvS2_NS0_9AlgorithmEENK3$_0clB5cxx11ERNS0_6HasherE"(ptr dead_on_unwind noalias writable sret(%"class.std::__cxx11::basic_string") align 8 %0, ptr noundef nonnull align 8 dereferenceable(16) %1, ptr noundef nonnull align 8 dereferenceable(8) %2) #4 align 2 {
  %4 = alloca ptr, align 8
  %5 = alloca ptr, align 8
  %6 = alloca ptr, align 8
  store ptr %0, ptr %4, align 8
  store ptr %1, ptr %5, align 8
  store ptr %2, ptr %6, align 8
  %7 = load ptr, ptr %5, align 8
  %8 = load ptr, ptr %6, align 8
  %9 = getelementptr inbounds %class.anon, ptr %7, i32 0, i32 0
  %10 = load ptr, ptr %9, align 8
  %11 = getelementptr inbounds %class.anon, ptr %7, i32 0, i32 1
  %12 = load ptr, ptr %11, align 8
  %13 = load ptr, ptr %8, align 8
  %14 = getelementptr inbounds ptr, ptr %13, i64 0
  %15 = load ptr, ptr %14, align 8
  call void %15(ptr noundef nonnull align 8 dereferenceable(8) %8, ptr noundef %10, ptr noundef %12) #16
  %16 = load ptr, ptr %6, align 8
  %17 = load ptr, ptr %16, align 8
  %18 = getelementptr inbounds ptr, ptr %17, i64 1
  %19 = load ptr, ptr %18, align 8
  call void %19(ptr dead_on_unwind writable sret(%"class.std::__cxx11::basic_string") align 8 %0, ptr noundef nonnull align 8 dereferenceable(8) %16)
  ret void
}

; Function Attrs: mustprogress nounwind uwtable
define internal void @_ZN5vcpkg4Hash12_GLOBAL__N_19ShaHasherINS1_15Sha256AlgorithmEEC2Ev(ptr noundef nonnull align 8 dereferenceable(120) %0) unnamed_addr #0 align 2 {
  %2 = alloca ptr, align 8
  store ptr %0, ptr %2, align 8
  %3 = load ptr, ptr %2, align 8
  call void @_ZN5vcpkg4Hash6HasherC2Ev(ptr noundef nonnull align 8 dereferenceable(8) %3) #16
  store ptr getelementptr inbounds ({ [7 x ptr] }, ptr @_ZTVN5vcpkg4Hash12_GLOBAL__N_19ShaHasherINS1_15Sha256AlgorithmEEE, i32 0, i32 0, i32 2), ptr %3, align 8
  %4 = getelementptr inbounds %"struct.vcpkg::Hash::(anonymous namespace)::ShaHasher", ptr %3, i32 0, i32 1
  call void @_ZN5vcpkg4Hash12_GLOBAL__N_115Sha256AlgorithmC2Ev(ptr noundef nonnull align 4 dereferenceable(32) %4) #16
  %5 = getelementptr inbounds %"struct.vcpkg::Hash::(anonymous namespace)::ShaHasher", ptr %3, i32 0, i32 2
  %6 = getelementptr inbounds %"struct.std::array.22", ptr %5, i32 0, i32 0
  call void @llvm.memset.p0.i64(ptr align 8 %6, i8 0, i64 64, i1 false)
  %7 = getelementptr inbounds %"struct.vcpkg::Hash::(anonymous namespace)::ShaHasher", ptr %3, i32 0, i32 3
  store i64 0, ptr %7, align 8
  %8 = getelementptr inbounds %"struct.vcpkg::Hash::(anonymous namespace)::ShaHasher", ptr %3, i32 0, i32 4
  store i64 0, ptr %8, align 8
  ret void
}

; Function Attrs: mustprogress uwtable
define internal void @"_ZN5vcpkg4HashL7do_hashINSt7__cxx1112basic_stringIcSt11char_traitsIcESaIcEEEZNS0_14get_bytes_hashEPKvS9_NS0_9AlgorithmEE3$_0EET_SA_RKT0_"(ptr dead_on_unwind noalias writable sret(%"class.std::__cxx11::basic_string") align 8 %0, i32 noundef %1, ptr noundef nonnull align 8 dereferenceable(16) %2) #4 personality ptr @__gxx_personality_v0 {
  %4 = alloca ptr, align 8
  %5 = alloca i32, align 4
  %6 = alloca ptr, align 8
  %7 = alloca %"struct.vcpkg::Hash::(anonymous namespace)::ShaHasher", align 8
  %8 = alloca ptr, align 8
  %9 = alloca i32, align 4
  %10 = alloca %"struct.vcpkg::Hash::(anonymous namespace)::ShaHasher.26", align 8
  %11 = alloca %"struct.vcpkg::LineInfo", align 8
  store ptr %0, ptr %4, align 8
  store i32 %1, ptr %5, align 4
  store ptr %2, ptr %6, align 8
  %12 = load i32, ptr %5, align 4
  switch i32 %12, label %27 [
    i32 0, label %13
    i32 1, label %20
  ]

13:                                               ; preds = %3
  call void @llvm.memset.p0.i64(ptr align 8 %7, i8 0, i64 120, i1 false)
  call void @_ZN5vcpkg4Hash12_GLOBAL__N_19ShaHasherINS1_15Sha256AlgorithmEEC2Ev(ptr noundef nonnull align 8 dereferenceable(120) %7) #16
  %14 = load ptr, ptr %6, align 8
  invoke void @"_ZZN5vcpkg4Hash14get_bytes_hashB5cxx11EPKvS2_NS0_9AlgorithmEENK3$_0clB5cxx11ERNS0_6HasherE"(ptr dead_on_unwind writable sret(%"class.std::__cxx11::basic_string") align 8 %0, ptr noundef nonnull align 8 dereferenceable(16) %14, ptr noundef nonnull align 8 dereferenceable(8) %7)
          to label %15 unwind label %16

15:                                               ; preds = %13
  call void @_ZN5vcpkg4Hash12_GLOBAL__N_19ShaHasherINS1_15Sha256AlgorithmEED2Ev(ptr noundef nonnull align 8 dereferenceable(120) %7) #16
  br label %30

16:                                               ; preds = %13
  %17 = landingpad { ptr, i32 }
          cleanup
  %18 = extractvalue { ptr, i32 } %17, 0
  store ptr %18, ptr %8, align 8
  %19 = extractvalue { ptr, i32 } %17, 1
  store i32 %19, ptr %9, align 4
  call void @_ZN5vcpkg4Hash12_GLOBAL__N_19ShaHasherINS1_15Sha256AlgorithmEED2Ev(ptr noundef nonnull align 8 dereferenceable(120) %7) #16
  br label %31

20:                                               ; preds = %3
  call void @llvm.memset.p0.i64(ptr align 8 %10, i8 0, i64 224, i1 false)
  call void @_ZN5vcpkg4Hash12_GLOBAL__N_19ShaHasherINS1_15Sha512AlgorithmEEC2Ev(ptr noundef nonnull align 8 dereferenceable(224) %10)
  %21 = load ptr, ptr %6, align 8
  invoke void @"_ZZN5vcpkg4Hash14get_bytes_hashB5cxx11EPKvS2_NS0_9AlgorithmEENK3$_0clB5cxx11ERNS0_6HasherE"(ptr dead_on_unwind writable sret(%"class.std::__cxx11::basic_string") align 8 %0, ptr noundef nonnull align 8 dereferenceable(16) %21, ptr noundef nonnull align 8 dereferenceable(8) %10)
          to label %22 unwind label %23

22:                                               ; preds = %20
  call void @_ZN5vcpkg4Hash12_GLOBAL__N_19ShaHasherINS1_15Sha512AlgorithmEED2Ev(ptr noundef nonnull align 8 dereferenceable(224) %10) #16
  br label %30

23:                                               ; preds = %20
  %24 = landingpad { ptr, i32 }
          cleanup
  %25 = extractvalue { ptr, i32 } %24, 0
  store ptr %25, ptr %8, align 8
  %26 = extractvalue { ptr, i32 } %24, 1
  store i32 %26, ptr %9, align 4
  call void @_ZN5vcpkg4Hash12_GLOBAL__N_19ShaHasherINS1_15Sha512AlgorithmEED2Ev(ptr noundef nonnull align 8 dereferenceable(224) %10) #16
  br label %31

27:                                               ; preds = %3
  %28 = getelementptr inbounds %"struct.vcpkg::LineInfo", ptr %11, i32 0, i32 0
  store i32 539, ptr %28, align 8
  %29 = getelementptr inbounds %"struct.vcpkg::LineInfo", ptr %11, i32 0, i32 1
  store ptr @.str.2, ptr %29, align 8
  call void @_ZN5vcpkg6Checks11unreachableERKNS_8LineInfoE(ptr noundef nonnull align 8 dereferenceable(16) %11) #19
  unreachable

30:                                               ; preds = %22, %15
  ret void

31:                                               ; preds = %23, %16
  %32 = load ptr, ptr %8, align 8
  %33 = load i32, ptr %9, align 4
  %34 = insertvalue { ptr, i32 } poison, ptr %32, 0
  %35 = insertvalue { ptr, i32 } %34, i32 %33, 1
  resume { ptr, i32 } %35
}

; Function Attrs: mustprogress uwtable
define dso_local void @_ZN5vcpkg4Hash14get_bytes_hashB5cxx11EPKvS2_NS0_9AlgorithmE(ptr dead_on_unwind noalias writable sret(%"class.std::__cxx11::basic_string") align 8 %0, ptr noundef %1, ptr noundef %2, i32 noundef %3) #4 {
  %5 = alloca ptr, align 8
  %6 = alloca ptr, align 8
  %7 = alloca ptr, align 8
  %8 = alloca i32, align 4
  %9 = alloca %class.anon, align 8
  store ptr %0, ptr %5, align 8
  store ptr %1, ptr %6, align 8
  store ptr %2, ptr %7, align 8
  store i32 %3, ptr %8, align 4
  %10 = load i32, ptr %8, align 4
  %11 = getelementptr inbounds %class.anon, ptr %9, i32 0, i32 0
  %12 = load ptr, ptr %6, align 8
  store ptr %12, ptr %11, align 8
  %13 = getelementptr inbounds %class.anon, ptr %9, i32 0, i32 1
  %14 = load ptr, ptr %7, align 8
  store ptr %14, ptr %13, align 8
  call void @"_ZN5vcpkg4HashL7do_hashINSt7__cxx1112basic_stringIcSt11char_traitsIcESaIcEEEZNS0_14get_bytes_hashEPKvS9_NS0_9AlgorithmEE3$_0EET_SA_RKT0_"(ptr dead_on_unwind writable sret(%"class.std::__cxx11::basic_string") align 8 %0, i32 noundef %10, ptr noundef nonnull align 8 dereferenceable(16) %9)
  ret void
}

; Function Attrs: mustprogress nounwind uwtable
define linkonce_odr dso_local noundef i64 @_ZNK5vcpkg10StringView4sizeEv(ptr noundef nonnull align 8 dereferenceable(16) %0) #0 comdat align 2 {
  %2 = alloca ptr, align 8
  store ptr %0, ptr %2, align 8
  %3 = load ptr, ptr %2, align 8
  %4 = getelementptr inbounds %"struct.vcpkg::StringView", ptr %3, i32 0, i32 1
  %5 = load i64, ptr %4, align 8
  ret i64 %5
}

; Function Attrs: mustprogress nounwind uwtable
define linkonce_odr dso_local noundef ptr @_ZNK5vcpkg10StringView4dataEv(ptr noundef nonnull align 8 dereferenceable(16) %0) #0 comdat align 2 {
  %2 = alloca ptr, align 8
  store ptr %0, ptr %2, align 8
  %3 = load ptr, ptr %2, align 8
  %4 = getelementptr inbounds %"struct.vcpkg::StringView", ptr %3, i32 0, i32 0
  %5 = load ptr, ptr %4, align 8
  ret ptr %5
}

; Function Attrs: mustprogress uwtable
define dso_local void @_ZN5vcpkg4Hash15get_string_hashB5cxx11ENS_10StringViewENS0_9AlgorithmE(ptr dead_on_unwind noalias writable sret(%"class.std::__cxx11::basic_string") align 8 %0, ptr %1, i64 %2, i32 noundef %3) #4 {
  %5 = alloca ptr, align 8
  %6 = alloca %"struct.vcpkg::StringView", align 8
  %7 = alloca i32, align 4
  store ptr %0, ptr %5, align 8
  %8 = getelementptr inbounds { ptr, i64 }, ptr %6, i32 0, i32 0
  store ptr %1, ptr %8, align 8
  %9 = getelementptr inbounds { ptr, i64 }, ptr %6, i32 0, i32 1
  store i64 %2, ptr %9, align 8
  store i32 %3, ptr %7, align 4
  %10 = call noundef ptr @_ZNK5vcpkg10StringView4dataEv(ptr noundef nonnull align 8 dereferenceable(16) %6) #16
  %11 = call noundef ptr @_ZNK5vcpkg10StringView4dataEv(ptr noundef nonnull align 8 dereferenceable(16) %6) #16
  %12 = call noundef i64 @_ZNK5vcpkg10StringView4sizeEv(ptr noundef nonnull align 8 dereferenceable(16) %6) #16
  %13 = getelementptr inbounds i8, ptr %11, i64 %12
  %14 = load i32, ptr %7, align 4
  call void @_ZN5vcpkg4Hash14get_bytes_hashB5cxx11EPKvS2_NS0_9AlgorithmE(ptr dead_on_unwind writable sret(%"class.std::__cxx11::basic_string") align 8 %0, ptr noundef %10, ptr noundef %13, i32 noundef %14)
  ret void
}

; Function Attrs: mustprogress uwtable
define dso_local void @_ZN5vcpkg4Hash17get_string_sha256B5cxx11ENS_10StringViewE(ptr dead_on_unwind noalias writable sret(%"class.std::__cxx11::basic_string") align 8 %0, ptr %1, i64 %2) #4 {
  %4 = alloca ptr, align 8
  %5 = alloca %"struct.vcpkg::StringView", align 8
  %6 = alloca %"struct.vcpkg::StringView", align 8
  store ptr %0, ptr %4, align 8
  %7 = getelementptr inbounds { ptr, i64 }, ptr %5, i32 0, i32 0
  store ptr %1, ptr %7, align 8
  %8 = getelementptr inbounds { ptr, i64 }, ptr %5, i32 0, i32 1
  store i64 %2, ptr %8, align 8
  call void @llvm.memcpy.p0.p0.i64(ptr align 8 %6, ptr align 8 %5, i64 16, i1 false)
  %9 = getelementptr inbounds { ptr, i64 }, ptr %6, i32 0, i32 0
  %10 = load ptr, ptr %9, align 8
  %11 = getelementptr inbounds { ptr, i64 }, ptr %6, i32 0, i32 1
  %12 = load i64, ptr %11, align 8
  call void @_ZN5vcpkg4Hash15get_string_hashB5cxx11ENS_10StringViewENS0_9AlgorithmE(ptr dead_on_unwind writable sret(%"class.std::__cxx11::basic_string") align 8 %0, ptr %10, i64 %12, i32 noundef 0)
  ret void
}