; Function Attrs: mustprogress uwtable
define dso_local void @_ZN5vcpkg4Hash17get_string_sha256B5cxx11ENS_10StringViewE(ptr dead_on_unwind noalias writable sret(%"class.std::__cxx11::basic_string") align 8 %0, ptr %1, i64 %2) local_unnamed_addr #4 personality ptr @__gxx_personality_v0 {
  %4 = alloca %"struct.vcpkg::Hash::(anonymous namespace)::ShaHasher", align 8
  %5 = getelementptr inbounds i8, ptr %1, i64 %2
  call void @llvm.lifetime.start.p0(i64 120, ptr nonnull %4), !noalias !23
  store ptr getelementptr inbounds ({ [7 x ptr] }, ptr @_ZTVN5vcpkg4Hash12_GLOBAL__N_19ShaHasherINS1_15Sha256AlgorithmEEE, i64 0, i32 0, i64 2), ptr %4, align 8, !noalias !26
  %6 = getelementptr inbounds i8, ptr %4, i64 8
  store <4 x i32> <i32 1779033703, i32 -1150833019, i32 1013904242, i32 -1521486534>, ptr %6, align 8, !noalias !26
  %7 = getelementptr inbounds i8, ptr %4, i64 24
  store <4 x i32> <i32 1359893119, i32 -1694144372, i32 528734635, i32 1541459225>, ptr %7, align 8, !noalias !26
  %8 = getelementptr inbounds i8, ptr %4, i64 40
  call void @llvm.memset.p0.i64(ptr noundef nonnull align 8 dereferenceable(80) %8, i8 0, i64 80, i1 false), !noalias !26
  %9 = getelementptr inbounds i8, ptr %4, i64 104
  %10 = ptrtoint ptr %5 to i64
  %.not.i15.i.i.i = icmp ult i64 %2, 64
  br i1 %.not.i15.i.i.i, label %._crit_edge.i.i.i, label %.lr.ph.i.i.i

.lr.ph.i.i.i:                                     ; preds = %3
  %11 = getelementptr inbounds i8, ptr %4, i64 112
  br label %13

._crit_edge.i.i.i:                                ; preds = %13, %3
  %.0.lcssa.i.i.i = phi ptr [ %1, %3 ], [ %14, %13 ]
  %.lcssa.i.i.i = phi i64 [ %2, %3 ], [ %18, %13 ]
  %.not.i.i.i.i.i20.i.i.i.i = icmp eq ptr %.0.lcssa.i.i.i, %5
  br i1 %.not.i.i.i.i.i20.i.i.i.i, label %_ZN5vcpkg4Hash14get_bytes_hashB5cxx11EPKvS2_NS0_9AlgorithmE.exit, label %12

12:                                               ; preds = %._crit_edge.i.i.i
  call void @llvm.memcpy.p0.p0.i64(ptr nonnull align 8 %8, ptr align 1 %.0.lcssa.i.i.i, i64 %.lcssa.i.i.i, i1 false), !noalias !29
  %.pre22.i.i.i.i = load i64, ptr %9, align 8, !noalias !29
  br label %_ZN5vcpkg4Hash14get_bytes_hashB5cxx11EPKvS2_NS0_9AlgorithmE.exit

13:                                               ; preds = %13, %.lr.ph.i.i.i
  %.016.i.i.i = phi ptr [ %1, %.lr.ph.i.i.i ], [ %14, %13 ]
  %14 = getelementptr inbounds i8, ptr %.016.i.i.i, i64 64
  call void @llvm.memcpy.p0.p0.i64(ptr noundef nonnull align 8 dereferenceable(64) %8, ptr noundef nonnull align 1 dereferenceable(64) %.016.i.i.i, i64 64, i1 false), !noalias !29
  store i64 64, ptr %9, align 8, !noalias !29
  %15 = load i64, ptr %11, align 8, !noalias !29
  %16 = add i64 %15, 512
  store i64 %16, ptr %11, align 8, !noalias !29
  call fastcc void @_ZN5vcpkg4Hash12_GLOBAL__N_115Sha256Algorithm18process_full_chunkERKSt5arrayIhLm64EE(ptr noundef nonnull align 4 dereferenceable(32) %6, ptr noundef nonnull align 1 dereferenceable(64) %8) #21, !noalias !29
  store i64 0, ptr %9, align 8, !noalias !29
  %17 = ptrtoint ptr %14 to i64
  %18 = sub i64 %10, %17
  %.not.i.i.i.i = icmp ult i64 %18, 64
  br i1 %.not.i.i.i.i, label %._crit_edge.i.i.i, label %13, !llvm.loop !17

_ZN5vcpkg4Hash14get_bytes_hashB5cxx11EPKvS2_NS0_9AlgorithmE.exit: ; preds = %._crit_edge.i.i.i, %12
  %19 = phi i64 [ %.pre22.i.i.i.i, %12 ], [ 0, %._crit_edge.i.i.i ]
  %20 = add i64 %19, %.lcssa.i.i.i
  store i64 %20, ptr %9, align 8, !noalias !29
  %21 = shl nuw nsw i64 %.lcssa.i.i.i, 3
  %22 = getelementptr inbounds i8, ptr %4, i64 112
  %23 = load i64, ptr %22, align 8, !noalias !29
  %24 = add i64 %23, %21
  store i64 %24, ptr %22, align 8, !noalias !29
  %.sink3.i.i = load ptr, ptr %4, align 8, !noalias !26
  %25 = getelementptr inbounds i8, ptr %.sink3.i.i, i64 8
  %26 = load ptr, ptr %25, align 8, !noalias !26
  call void %26(ptr dead_on_unwind writable sret(%"class.std::__cxx11::basic_string") align 8 %0, ptr noundef nonnull align 8 dereferenceable(8) %4)
  call void @llvm.lifetime.end.p0(i64 120, ptr nonnull %4), !noalias !23
  ret void
}